; Function Attrs: mustprogress uwtable
define hidden noundef i32 @_Z7failmsgPKcz(ptr nocapture noundef readonly %0, ...) local_unnamed_addr #4 {
  %2 = alloca [1000 x i8], align 16
  %3 = alloca [1 x %struct.__va_list_tag], align 16
  call void @llvm.va_start.p0(ptr nonnull %3)
  %4 = call i32 @vsnprintf(ptr noundef nonnull %2, i64 noundef 1000, ptr noundef %0, ptr noundef nonnull %3) #17
  call void @llvm.va_end.p0(ptr nonnull %3)
  %5 = load ptr, ptr @PyExc_TypeError, align 8
  call void @_Z12emit_failmsgP7_objectPKc(ptr noundef %5, ptr noundef nonnull %2)
  ret i32 0
}